target datalayout = "e-m:e-p270:32:32-p271:32:32-p272:64:64-i64:64-i128:128-f80:128-n8:16:32:64-S128"
target triple = "x86_64-pc-linux-gnu"

%"class.std::shared_ptr" = type { %"class.std::__shared_ptr" }
%"class.std::__shared_ptr" = type { ptr, %"class.std::__shared_count" }
%"class.std::__shared_count" = type { ptr }
%"class.arrow::detail::Fingerprintable" = type { ptr, %"struct.std::atomic", %"struct.std::atomic" }
%"struct.std::atomic" = type { %"struct.std::__atomic_base" }
%"struct.std::__atomic_base" = type { ptr }
%"class.arrow::DataType" = type { %"class.arrow::detail::Fingerprintable", %"class.std::enable_shared_from_this", i32, %"class.std::vector.12" }
%"class.std::enable_shared_from_this" = type { %"class.std::weak_ptr" }
%"class.std::weak_ptr" = type { %"class.std::__weak_ptr" }
%"class.std::__weak_ptr" = type { ptr, %"class.std::__weak_count" }
%"class.std::__weak_count" = type { ptr }
%"class.std::vector.12" = type { %"struct.std::_Vector_base.13" }
%"struct.std::_Vector_base.13" = type { %"struct.std::_Vector_base<std::shared_ptr<arrow::Field>, std::allocator<std::shared_ptr<arrow::Field>>>::_Vector_impl" }
%"struct.std::_Vector_base<std::shared_ptr<arrow::Field>, std::allocator<std::shared_ptr<arrow::Field>>>::_Vector_impl" = type { %"struct.std::_Vector_base<std::shared_ptr<arrow::Field>, std::allocator<std::shared_ptr<arrow::Field>>>::_Vector_impl_data" }
%"struct.std::_Vector_base<std::shared_ptr<arrow::Field>, std::allocator<std::shared_ptr<arrow::Field>>>::_Vector_impl_data" = type { ptr, ptr, ptr }
%"struct.std::_Vector_base.139" = type { %"struct.std::_Vector_base<arrow::FieldPath, std::allocator<arrow::FieldPath>>::_Vector_impl" }
%"struct.std::_Vector_base<arrow::FieldPath, std::allocator<arrow::FieldPath>>::_Vector_impl" = type { %"struct.std::_Vector_base<arrow::FieldPath, std::allocator<arrow::FieldPath>>::_Vector_impl_data" }
%"struct.std::_Vector_base<arrow::FieldPath, std::allocator<arrow::FieldPath>>::_Vector_impl_data" = type { ptr, ptr, ptr }
%"class.std::shared_ptr.156" = type { %"class.std::__shared_ptr.157" }
%"class.std::__shared_ptr.157" = type { ptr, %"class.std::__shared_count" }
%"class.arrow::FieldRef" = type { %"class.std::variant.271" }
%"class.std::variant.271" = type { %"struct.std::__detail::__variant::_Variant_base.base.291", [7 x i8] }
%"struct.std::__detail::__variant::_Variant_base.base.291" = type { %"struct.std::__detail::__variant::_Move_assign_base.base.290" }
%"struct.std::__detail::__variant::_Move_assign_base.base.290" = type { %"struct.std::__detail::__variant::_Copy_assign_base.base.289" }
%"struct.std::__detail::__variant::_Copy_assign_base.base.289" = type { %"struct.std::__detail::__variant::_Move_ctor_base.base.288" }
%"struct.std::__detail::__variant::_Move_ctor_base.base.288" = type { %"struct.std::__detail::__variant::_Copy_ctor_base.base.287" }
%"struct.std::__detail::__variant::_Copy_ctor_base.base.287" = type { %"struct.std::__detail::__variant::_Variant_storage.base.286" }
%"struct.std::__detail::__variant::_Variant_storage.base.286" = type { %"union.std::__detail::__variant::_Variadic_union.278", i8 }
%"union.std::__detail::__variant::_Variadic_union.278" = type { %"union.std::__detail::__variant::_Variadic_union.280" }
%"union.std::__detail::__variant::_Variadic_union.280" = type { %"struct.std::__detail::__variant::_Uninitialized.281" }
%"struct.std::__detail::__variant::_Uninitialized.281" = type { %"struct.__gnu_cxx::__aligned_membuf.282" }
%"struct.__gnu_cxx::__aligned_membuf.282" = type { [32 x i8] }
%"class.std::vector.138" = type { %"struct.std::_Vector_base.139" }
%struct.Visitor.311 = type { ptr }
%"struct.arrow::ArrayData" = type { %"class.std::shared_ptr", i64, %"struct.std::atomic.244", i64, %"class.std::vector.246", %"class.std::vector.180", %"class.std::shared_ptr.156", %"class.std::shared_ptr.251" }
%"struct.std::atomic.244" = type { %"struct.std::__atomic_base.245" }
%"struct.std::__atomic_base.245" = type { i64 }
%"class.std::vector.246" = type { %"struct.std::_Vector_base.247" }
%"struct.std::_Vector_base.247" = type { %"struct.std::_Vector_base<std::shared_ptr<arrow::Buffer>, std::allocator<std::shared_ptr<arrow::Buffer>>>::_Vector_impl" }
%"struct.std::_Vector_base<std::shared_ptr<arrow::Buffer>, std::allocator<std::shared_ptr<arrow::Buffer>>>::_Vector_impl" = type { %"struct.std::_Vector_base<std::shared_ptr<arrow::Buffer>, std::allocator<std::shared_ptr<arrow::Buffer>>>::_Vector_impl_data" }
%"struct.std::_Vector_base<std::shared_ptr<arrow::Buffer>, std::allocator<std::shared_ptr<arrow::Buffer>>>::_Vector_impl_data" = type { ptr, ptr, ptr }
%"class.std::vector.180" = type { %"struct.std::_Vector_base.181" }
%"struct.std::_Vector_base.181" = type { %"struct.std::_Vector_base<std::shared_ptr<arrow::ArrayData>, std::allocator<std::shared_ptr<arrow::ArrayData>>>::_Vector_impl" }
%"struct.std::_Vector_base<std::shared_ptr<arrow::ArrayData>, std::allocator<std::shared_ptr<arrow::ArrayData>>>::_Vector_impl" = type { %"struct.std::_Vector_base<std::shared_ptr<arrow::ArrayData>, std::allocator<std::shared_ptr<arrow::ArrayData>>>::_Vector_impl_data" }
%"struct.std::_Vector_base<std::shared_ptr<arrow::ArrayData>, std::allocator<std::shared_ptr<arrow::ArrayData>>>::_Vector_impl_data" = type { ptr, ptr, ptr }
%"class.std::shared_ptr.251" = type { %"class.std::__shared_ptr.252" }
%"class.std::__shared_ptr.252" = type { ptr, %"class.std::__shared_count" }
%"struct.std::__detail::__variant::_Variant_storage.277" = type { %"union.std::__detail::__variant::_Variadic_union.278", i8, [7 x i8] }
%"class.std::bad_variant_access" = type { %"class.std::exception", ptr }
%"class.std::exception" = type { ptr }

@.str.216 = private unnamed_addr constant [33 x i8] c"std::visit: variant is valueless\00", align 1
@_ZTISt18bad_variant_access = linkonce_odr constant { ptr, ptr, ptr } { ptr getelementptr inbounds (ptr, ptr @_ZTVN10__cxxabiv120__si_class_type_infoE, i64 2), ptr @_ZTSSt18bad_variant_access, ptr @_ZTISt9exception }, comdat, align 8
@_ZTVSt18bad_variant_access = linkonce_odr unnamed_addr constant { [5 x ptr] } { [5 x ptr] [ptr null, ptr @_ZTISt18bad_variant_access, ptr @_ZNSt9exceptionD2Ev, ptr @_ZNSt18bad_variant_accessD0Ev, ptr @_ZNKSt18bad_variant_access4whatEv] }, comdat, align 8
@_ZTVSt9exception = available_externally unnamed_addr constant { [5 x ptr] } { [5 x ptr] [ptr null, ptr @_ZTISt9exception, ptr @_ZNSt9exceptionD1Ev, ptr @_ZNSt9exceptionD0Ev, ptr @_ZNKSt9exception4whatEv] }, align 8

; Function Attrs: mustprogress nounwind uwtable
define linkonce_odr void @_ZNSt9exceptionC2Ev(ptr noundef nonnull align 8 dereferenceable(8) %0) unnamed_addr #0 comdat align 2 {
  %2 = alloca ptr, align 8
  store ptr %0, ptr %2, align 8, !tbaa !1306
  %3 = load ptr, ptr %2, align 8
  store ptr getelementptr inbounds inrange(-16, 24) ({ [5 x ptr] }, ptr @_ZTVSt9exception, i32 0, i32 0, i32 2), ptr %3, align 8, !tbaa !166
  ret void
}

; Function Attrs: mustprogress nounwind uwtable
define linkonce_odr void @_ZNSt18bad_variant_accessC2EPKc(ptr noundef nonnull align 8 dereferenceable(16) %0, ptr noundef %1) unnamed_addr #0 comdat align 2 {
  %3 = alloca ptr, align 8
  %4 = alloca ptr, align 8
  store ptr %0, ptr %3, align 8, !tbaa !1301
  store ptr %1, ptr %4, align 8, !tbaa !164
  %5 = load ptr, ptr %3, align 8
  call void @_ZNSt9exceptionC2Ev(ptr noundef nonnull align 8 dereferenceable(8) %5) #15
  store ptr getelementptr inbounds inrange(-16, 24) ({ [5 x ptr] }, ptr @_ZTVSt18bad_variant_access, i32 0, i32 0, i32 2), ptr %5, align 8, !tbaa !166
  %6 = getelementptr inbounds nuw %"class.std::bad_variant_access", ptr %5, i32 0, i32 1
  %7 = load ptr, ptr %4, align 8, !tbaa !164
  store ptr %7, ptr %6, align 8, !tbaa !1303
  ret void
}

; Function Attrs: mustprogress nounwind uwtable
define linkonce_odr noundef zeroext i1 @_ZNKSt8__detail9__variant16_Variant_storageILb0EJN5arrow9FieldPathENSt7__cxx1112basic_stringIcSt11char_traitsIcESaIcEEESt6vectorINS2_8FieldRefESaISB_EEEE8_M_validEv(ptr noundef nonnull align 8 dereferenceable(33) %0) #0 comdat align 2 {
  %2 = alloca ptr, align 8
  store ptr %0, ptr %2, align 8, !tbaa !1227
  %3 = load ptr, ptr %2, align 8
  %4 = getelementptr inbounds nuw %"struct.std::__detail::__variant::_Variant_storage.277", ptr %3, i32 0, i32 1
  %5 = load i8, ptr %4, align 8, !tbaa !1229
  %6 = zext i8 %5 to i32
  %7 = icmp ne i32 %6, 255
  ret i1 %7
}

; Function Attrs: inlinehint mustprogress uwtable
define linkonce_odr void @_ZSt26__throw_bad_variant_accessPKc(ptr noundef %0) #5 comdat {
  %2 = alloca ptr, align 8
  store ptr %0, ptr %2, align 8, !tbaa !164
  %3 = call ptr @__cxa_allocate_exception(i64 16) #15
  %4 = load ptr, ptr %2, align 8, !tbaa !164
  call void @_ZNSt18bad_variant_accessC2EPKc(ptr noundef nonnull align 8 dereferenceable(16) %3, ptr noundef %4) #15
  call void @__cxa_throw(ptr %3, ptr @_ZTISt18bad_variant_access, ptr @_ZNSt9exceptionD2Ev) #31
  unreachable
}

; Function Attrs: mustprogress nounwind uwtable
define linkonce_odr noundef zeroext i1 @_ZNKSt7variantIJN5arrow9FieldPathENSt7__cxx1112basic_stringIcSt11char_traitsIcESaIcEEESt6vectorINS0_8FieldRefESaIS9_EEEE22valueless_by_exceptionEv(ptr noundef nonnull align 8 dereferenceable(33) %0) #0 comdat align 2 {
  %2 = alloca ptr, align 8
  store ptr %0, ptr %2, align 8, !tbaa !659
  %3 = load ptr, ptr %2, align 8
  %4 = call noundef zeroext i1 @_ZNKSt8__detail9__variant16_Variant_storageILb0EJN5arrow9FieldPathENSt7__cxx1112basic_stringIcSt11char_traitsIcESaIcEEESt6vectorINS2_8FieldRefESaISB_EEEE8_M_validEv(ptr noundef nonnull align 8 dereferenceable(33) %3) #15
  %5 = xor i1 %4, true
  ret i1 %5
}

; Function Attrs: mustprogress nounwind uwtable
define linkonce_odr noundef nonnull align 8 dereferenceable(33) ptr @_ZNSt8__detail9__variant4__asIJN5arrow9FieldPathENSt7__cxx1112basic_stringIcSt11char_traitsIcESaIcEEESt6vectorINS2_8FieldRefESaISB_EEEEERKSt7variantIJDpT_EESJ_(ptr noundef nonnull align 8 dereferenceable(33) %0) #0 comdat {
  %2 = alloca ptr, align 8
  store ptr %0, ptr %2, align 8, !tbaa !659
  %3 = load ptr, ptr %2, align 8, !tbaa !659
  ret ptr %3
}

; Function Attrs: mustprogress uwtable
define internal void @_ZSt5visitIZNK5arrow8FieldRef7FindAllERKSt6vectorISt10shared_ptrINS0_5FieldEESaIS5_EEE7VisitorJRKSt7variantIJNS0_9FieldPathENSt7__cxx1112basic_stringIcSt11char_traitsIcESaIcEEES2_IS1_SaIS1_EEEEEENSt13invoke_resultIT_JDpNSt13__conditionalIX21is_lvalue_reference_vIT0_EEE4typeIRNSt19variant_alternativeILm0ENSt16remove_referenceIDTclsr9__variantE4__asclsr3stdE7declvalISR_EEEEE4typeEE4typeEOS10_EEEE4typeEOSP_DpOSR_(ptr dead_on_unwind noalias writable sret(%"class.std::vector.138") align 8 %0, ptr noundef nonnull align 8 dereferenceable(8) %1, ptr noundef nonnull align 8 dereferenceable(33) %2) #1 {
  %4 = alloca ptr, align 8
  %5 = alloca ptr, align 8
  %6 = alloca ptr, align 8
  %7 = alloca i8, align 1
  store ptr %0, ptr %4, align 8
  store ptr %1, ptr %5, align 8, !tbaa !691
  store ptr %2, ptr %6, align 8, !tbaa !659
  %8 = load ptr, ptr %6, align 8, !tbaa !659
  %9 = call noundef nonnull align 8 dereferenceable(33) ptr @_ZNSt8__detail9__variant4__asIJN5arrow9FieldPathENSt7__cxx1112basic_stringIcSt11char_traitsIcESaIcEEESt6vectorINS2_8FieldRefESaISB_EEEEERKSt7variantIJDpT_EESJ_(ptr noundef nonnull align 8 dereferenceable(33) %8) #15
  %10 = call noundef zeroext i1 @_ZNKSt7variantIJN5arrow9FieldPathENSt7__cxx1112basic_stringIcSt11char_traitsIcESaIcEEESt6vectorINS0_8FieldRefESaIS9_EEEE22valueless_by_exceptionEv(ptr noundef nonnull align 8 dereferenceable(33) %9) #15
  br i1 %10, label %11, label %12

11:                                               ; preds = %3
  call void @_ZSt26__throw_bad_variant_accessPKc(ptr noundef @.str.216)
  br label %12

12:                                               ; preds = %11, %3
  call void @llvm.lifetime.start.p0(i64 1, ptr %7) #15
  store i8 1, ptr %7, align 1, !tbaa !226
  %13 = load ptr, ptr %5, align 8, !tbaa !691
  %14 = load ptr, ptr %6, align 8, !tbaa !659
  call void @_ZSt10__do_visitINSt8__detail9__variant21__deduce_visit_resultISt6vectorIN5arrow9FieldPathESaIS5_EEEEZNKS4_8FieldRef7FindAllERKS3_ISt10shared_ptrINS4_5FieldEESaISC_EEE7VisitorJRKSt7variantIJS5_NSt7__cxx1112basic_stringIcSt11char_traitsIcESaIcEEES3_IS9_SaIS9_EEEEEEDcOT0_DpOT1_(ptr dead_on_unwind writable sret(%"class.std::vector.138") align 8 %0, ptr noundef nonnull align 8 dereferenceable(8) %13, ptr noundef nonnull align 8 dereferenceable(33) %14)
  call void @llvm.lifetime.end.p0(i64 1, ptr %7) #15
  ret void
}

; Function Attrs: mustprogress nounwind uwtable
define linkonce_odr noundef ptr @_ZNKSt12__shared_ptrIN5arrow8DataTypeELN9__gnu_cxx12_Lock_policyE2EE3getEv(ptr noundef nonnull align 8 dereferenceable(16) %0) #0 comdat align 2 {
  %2 = alloca ptr, align 8
  store ptr %0, ptr %2, align 8, !tbaa !262
  %3 = load ptr, ptr %2, align 8
  %4 = getelementptr inbounds nuw %"class.std::__shared_ptr", ptr %3, i32 0, i32 0
  %5 = load ptr, ptr %4, align 8, !tbaa !264
  ret ptr %5
}

; Function Attrs: mustprogress uwtable
define void @_ZNK5arrow8FieldRef7FindAllERKSt6vectorISt10shared_ptrINS_5FieldEESaIS4_EE(ptr dead_on_unwind noalias writable sret(%"class.std::vector.138") align 8 %0, ptr noundef nonnull align 8 dereferenceable(40) %1, ptr noundef nonnull align 8 dereferenceable(24) %2) #1 align 2 {
  %4 = alloca ptr, align 8
  %5 = alloca ptr, align 8
  %6 = alloca ptr, align 8
  %7 = alloca %struct.Visitor.311, align 8
  store ptr %0, ptr %4, align 8
  store ptr %1, ptr %5, align 8, !tbaa !657
  store ptr %2, ptr %6, align 8, !tbaa !280
  %8 = load ptr, ptr %5, align 8
  call void @llvm.lifetime.start.p0(i64 8, ptr %7) #15
  %9 = getelementptr inbounds nuw %struct.Visitor.311, ptr %7, i32 0, i32 0
  %10 = load ptr, ptr %6, align 8, !tbaa !280
  store ptr %10, ptr %9, align 8, !tbaa !280
  %11 = getelementptr inbounds nuw %"class.arrow::FieldRef", ptr %8, i32 0, i32 0
  call void @_ZSt5visitIZNK5arrow8FieldRef7FindAllERKSt6vectorISt10shared_ptrINS0_5FieldEESaIS5_EEE7VisitorJRKSt7variantIJNS0_9FieldPathENSt7__cxx1112basic_stringIcSt11char_traitsIcESaIcEEES2_IS1_SaIS1_EEEEEENSt13invoke_resultIT_JDpNSt13__conditionalIX21is_lvalue_reference_vIT0_EEE4typeIRNSt19variant_alternativeILm0ENSt16remove_referenceIDTclsr9__variantE4__asclsr3stdE7declvalISR_EEEEE4typeEE4typeEOS10_EEEE4typeEOSP_DpOSR_(ptr dead_on_unwind writable sret(%"class.std::vector.138") align 8 %0, ptr noundef nonnull align 8 dereferenceable(8) %7, ptr noundef nonnull align 8 dereferenceable(33) %11)
  call void @llvm.lifetime.end.p0(i64 8, ptr %7) #15
  ret void
}

; Function Attrs: mustprogress nounwind uwtable
define linkonce_odr noundef nonnull align 8 dereferenceable(24) ptr @_ZNK5arrow8DataType6fieldsEv(ptr noundef nonnull align 8 dereferenceable(72) %0) #0 comdat align 2 {
  %2 = alloca ptr, align 8
  store ptr %0, ptr %2, align 8, !tbaa !195
  %3 = load ptr, ptr %2, align 8
  %4 = getelementptr inbounds nuw %"class.arrow::DataType", ptr %3, i32 0, i32 3
  ret ptr %4
}

; Function Attrs: mustprogress nounwind uwtable
define linkonce_odr noundef ptr @_ZNKSt19__shared_ptr_accessIN5arrow8DataTypeELN9__gnu_cxx12_Lock_policyE2ELb0ELb0EE6_M_getEv(ptr noundef nonnull align 1 dereferenceable(1) %0) #0 comdat align 2 {
  %2 = alloca ptr, align 8
  store ptr %0, ptr %2, align 8, !tbaa !199
  %3 = load ptr, ptr %2, align 8
  %4 = call noundef ptr @_ZNKSt12__shared_ptrIN5arrow8DataTypeELN9__gnu_cxx12_Lock_policyE2EE3getEv(ptr noundef nonnull align 8 dereferenceable(16) %3) #15
  ret ptr %4
}

; Function Attrs: mustprogress uwtable
define void @_ZNK5arrow8FieldRef7FindAllERKNS_8DataTypeE(ptr dead_on_unwind noalias writable sret(%"class.std::vector.138") align 8 %0, ptr noundef nonnull align 8 dereferenceable(40) %1, ptr noundef nonnull align 8 dereferenceable(72) %2) #1 align 2 {
  %4 = alloca ptr, align 8
  %5 = alloca ptr, align 8
  %6 = alloca ptr, align 8
  store ptr %0, ptr %4, align 8
  store ptr %1, ptr %5, align 8, !tbaa !657
  store ptr %2, ptr %6, align 8, !tbaa !195
  %7 = load ptr, ptr %5, align 8
  %8 = load ptr, ptr %6, align 8, !tbaa !195
  %9 = call noundef nonnull align 8 dereferenceable(24) ptr @_ZNK5arrow8DataType6fieldsEv(ptr noundef nonnull align 8 dereferenceable(72) %8)
  call void @_ZNK5arrow8FieldRef7FindAllERKSt6vectorISt10shared_ptrINS_5FieldEESaIS4_EE(ptr dead_on_unwind writable sret(%"class.std::vector.138") align 8 %0, ptr noundef nonnull align 8 dereferenceable(40) %7, ptr noundef nonnull align 8 dereferenceable(24) %9)
  ret void
}

; Function Attrs: mustprogress nounwind uwtable
define linkonce_odr noundef nonnull align 8 dereferenceable(72) ptr @_ZNKSt19__shared_ptr_accessIN5arrow8DataTypeELN9__gnu_cxx12_Lock_policyE2ELb0ELb0EEdeEv(ptr noundef nonnull align 1 dereferenceable(1) %0) #0 comdat align 2 {
  %2 = alloca ptr, align 8
  store ptr %0, ptr %2, align 8, !tbaa !199
  %3 = load ptr, ptr %2, align 8
  br label %4

4:                                                ; preds = %1
  br label %5

5:                                                ; preds = %4
  br label %6

6:                                                ; preds = %5
  %7 = call noundef ptr @_ZNKSt19__shared_ptr_accessIN5arrow8DataTypeELN9__gnu_cxx12_Lock_policyE2ELb0ELb0EE6_M_getEv(ptr noundef nonnull align 1 dereferenceable(1) %3) #15
  ret ptr %7
}

; Function Attrs: mustprogress uwtable
define void @_ZNK5arrow8FieldRef7FindAllERKNS_9ArrayDataE(ptr dead_on_unwind noalias writable sret(%"class.std::vector.138") align 8 %0, ptr noundef nonnull align 8 dereferenceable(40) %1, ptr noundef nonnull align 8 dereferenceable(120) %2) #1 align 2 {
  %4 = alloca ptr, align 8
  %5 = alloca ptr, align 8
  %6 = alloca ptr, align 8
  store ptr %0, ptr %4, align 8
  store ptr %1, ptr %5, align 8, !tbaa !657
  store ptr %2, ptr %6, align 8, !tbaa !636
  %7 = load ptr, ptr %5, align 8
  %8 = load ptr, ptr %6, align 8, !tbaa !636
  %9 = getelementptr inbounds nuw %"struct.arrow::ArrayData", ptr %8, i32 0, i32 0
  %10 = call noundef nonnull align 8 dereferenceable(72) ptr @_ZNKSt19__shared_ptr_accessIN5arrow8DataTypeELN9__gnu_cxx12_Lock_policyE2ELb0ELb0EEdeEv(ptr noundef nonnull align 1 dereferenceable(1) %9) #15
  call void @_ZNK5arrow8FieldRef7FindAllERKNS_8DataTypeE(ptr dead_on_unwind writable sret(%"class.std::vector.138") align 8 %0, ptr noundef nonnull align 8 dereferenceable(40) %7, ptr noundef nonnull align 8 dereferenceable(72) %10)
  ret void
}